target datalayout = "e-m:e-p270:32:32-p271:32:32-p272:64:64-i64:64-i128:128-f80:128-n8:16:32:64-S128"
target triple = "x86_64-pc-linux-gnu"

%struct.event = type { %struct.event_callback, %union.anon.0, i32, ptr, %union.anon.2, i16, i16, %struct.timeval }
%struct.event_callback = type { %struct.anon, i16, i8, i8, %union.anon, ptr }
%struct.anon = type { ptr, ptr }
%union.anon = type { ptr }
%union.anon.0 = type { %struct.anon.1 }
%struct.anon.1 = type { ptr, ptr }
%union.anon.2 = type { %struct.anon.3 }
%struct.anon.3 = type { %struct.anon.4, %struct.timeval }
%struct.anon.4 = type { ptr, ptr }
%struct.timeval = type { i64, i64 }
%struct.pmix_object_t = type { %union.pthread_mutex_t, ptr, i32, %struct.pmix_tma }
%union.pthread_mutex_t = type { %struct.__pthread_mutex_s }
%struct.__pthread_mutex_s = type { i32, i32, i32, i32, i32, i16, i16, %struct.__pthread_internal_list }
%struct.__pthread_internal_list = type { ptr, ptr }
%struct.pmix_tma = type { ptr, ptr, ptr, ptr, ptr, ptr, ptr, ptr }
%struct.pmix_class_t = type { ptr, ptr, ptr, ptr, i32, i32, ptr, ptr, i64 }
%struct.pmix_shift_caddy_t = type { %struct.pmix_object_t, %struct.event, %struct.pmix_lock_t, i32, ptr, i64, i32, %struct.pmix_name_t, ptr, ptr, ptr, i64, ptr, ptr, i64, ptr, i64, ptr, ptr, ptr, ptr, ptr, ptr, i8, %union.anon.9, ptr, i64 }
%struct.pmix_lock_t = type { i32, %struct.pmix_mutex_t, %union.pthread_cond_t, i8 }
%struct.pmix_mutex_t = type { %struct.pmix_object_t, %union.pthread_mutex_t }
%union.pthread_cond_t = type { %struct.__pthread_cond_s }
%struct.__pthread_cond_s = type { %union.__atomic_wide_counter, %union.__atomic_wide_counter, [2 x i32], [2 x i32], i32, i32, [2 x i32] }
%union.__atomic_wide_counter = type { i64 }
%struct.pmix_name_t = type { ptr, i32 }
%union.anon.9 = type { ptr }

@.str.10 = private unnamed_addr constant [21 x i8] c"pthread_mutex_lock()\00", align 1

; Function Attrs: inlinehint nounwind uwtable
define internal void @pmix_tma_free(ptr noundef %0, ptr noundef %1) #4 {
  %3 = alloca ptr, align 8
  %4 = alloca ptr, align 8
  store ptr %0, ptr %3, align 8, !tbaa !62
  store ptr %1, ptr %4, align 8, !tbaa !12
  %5 = load ptr, ptr %3, align 8, !tbaa !62
  %6 = icmp ne ptr null, %5
  br i1 %6, label %7, label %13

7:                                                ; preds = %2
  %8 = load ptr, ptr %3, align 8, !tbaa !62
  %9 = getelementptr inbounds nuw %struct.pmix_tma, ptr %8, i32 0, i32 5
  %10 = load ptr, ptr %9, align 8, !tbaa !85
  %11 = load ptr, ptr %3, align 8, !tbaa !62
  %12 = load ptr, ptr %4, align 8, !tbaa !12
  call void %10(ptr noundef %11, ptr noundef %12)
  br label %15

13:                                               ; preds = %2
  %14 = load ptr, ptr %4, align 8, !tbaa !12
  call void @free(ptr noundef %14) #13
  br label %15

15:                                               ; preds = %13, %7
  ret void
}

; Function Attrs: inlinehint nounwind uwtable
define internal void @pmix_obj_run_destructors(ptr noundef %0) #4 {
  %2 = alloca ptr, align 8
  %3 = alloca ptr, align 8
  store ptr %0, ptr %2, align 8, !tbaa !60
  call void @llvm.lifetime.start.p0(i64 8, ptr %3) #13
  %4 = load ptr, ptr %2, align 8, !tbaa !60
  %5 = getelementptr inbounds nuw %struct.pmix_object_t, ptr %4, i32 0, i32 1
  %6 = load ptr, ptr %5, align 8, !tbaa !54
  %7 = getelementptr inbounds nuw %struct.pmix_class_t, ptr %6, i32 0, i32 7
  %8 = load ptr, ptr %7, align 8, !tbaa !83
  store ptr %8, ptr %3, align 8, !tbaa !12
  br label %9

9:                                                ; preds = %13, %1
  %10 = load ptr, ptr %3, align 8, !tbaa !12
  %11 = load ptr, ptr %10, align 8, !tbaa !12
  %12 = icmp ne ptr null, %11
  br i1 %12, label %13, label %19

13:                                               ; preds = %9
  %14 = load ptr, ptr %3, align 8, !tbaa !12
  %15 = load ptr, ptr %14, align 8, !tbaa !12
  %16 = load ptr, ptr %2, align 8, !tbaa !60
  call void %15(ptr noundef %16)
  %17 = load ptr, ptr %3, align 8, !tbaa !12
  %18 = getelementptr inbounds nuw ptr, ptr %17, i32 1
  store ptr %18, ptr %3, align 8, !tbaa !12
  br label %9, !llvm.loop !84

19:                                               ; preds = %9
  call void @llvm.lifetime.end.p0(i64 8, ptr %3) #13
  ret void
}

; Function Attrs: alwaysinline nounwind uwtable
define internal i32 @pmix_obj_update(ptr noundef %0, i32 noundef %1) #5 {
  %3 = alloca ptr, align 8
  %4 = alloca i32, align 4
  %5 = alloca i32, align 4
  store ptr %0, ptr %3, align 8, !tbaa !60
  store i32 %1, ptr %4, align 4, !tbaa !10
  call void @llvm.lifetime.start.p0(i64 4, ptr %5) #13
  %6 = load ptr, ptr %3, align 8, !tbaa !60
  %7 = getelementptr inbounds nuw %struct.pmix_object_t, ptr %6, i32 0, i32 0
  %8 = call i32 @pthread_mutex_lock(ptr noundef %7) #13
  store i32 %8, ptr %5, align 4, !tbaa !10
  %9 = load i32, ptr %5, align 4, !tbaa !10
  %10 = icmp eq i32 %9, 35
  br i1 %10, label %11, label %14

11:                                               ; preds = %2
  %12 = load i32, ptr %5, align 4, !tbaa !10
  %13 = call ptr @__errno_location() #14
  store i32 %12, ptr %13, align 4, !tbaa !10
  call void @perror(ptr noundef @.str.10)
  call void @abort() #15
  unreachable

14:                                               ; preds = %2
  %15 = load i32, ptr %4, align 4, !tbaa !10
  %16 = load ptr, ptr %3, align 8, !tbaa !60
  %17 = getelementptr inbounds nuw %struct.pmix_object_t, ptr %16, i32 0, i32 2
  %18 = load i32, ptr %17, align 8, !tbaa !55
  %19 = add nsw i32 %18, %15
  store i32 %19, ptr %17, align 8, !tbaa !55
  store i32 %19, ptr %5, align 4, !tbaa !10
  %20 = load ptr, ptr %3, align 8, !tbaa !60
  %21 = getelementptr inbounds nuw %struct.pmix_object_t, ptr %20, i32 0, i32 0
  %22 = call i32 @pthread_mutex_unlock(ptr noundef %21) #13
  %23 = load i32, ptr %5, align 4, !tbaa !10
  call void @llvm.lifetime.end.p0(i64 4, ptr %5) #13
  ret i32 %23
}

; Function Attrs: nounwind uwtable
define internal void @show_help_cbfunc(i32 noundef %0, ptr noundef %1) #0 {
  %3 = alloca i32, align 4
  %4 = alloca ptr, align 8
  %5 = alloca ptr, align 8
  %6 = alloca ptr, align 8
  store i32 %0, ptr %3, align 4, !tbaa !10
  store ptr %1, ptr %4, align 8, !tbaa !12
  call void @llvm.lifetime.start.p0(i64 8, ptr %5) #13
  %7 = load ptr, ptr %4, align 8, !tbaa !12
  store ptr %7, ptr %5, align 8, !tbaa !12
  %8 = load ptr, ptr %5, align 8, !tbaa !12
  %9 = getelementptr inbounds nuw %struct.pmix_shift_caddy_t, ptr %8, i32 0, i32 15
  %10 = load ptr, ptr %9, align 8, !tbaa !110
  %11 = icmp ne ptr null, %10
  br i1 %11, label %12, label %24

12:                                               ; preds = %2
  br label %13

13:                                               ; preds = %12
  %14 = load ptr, ptr %5, align 8, !tbaa !12
  %15 = getelementptr inbounds nuw %struct.pmix_shift_caddy_t, ptr %14, i32 0, i32 15
  %16 = load ptr, ptr %15, align 8, !tbaa !110
  %17 = load ptr, ptr %5, align 8, !tbaa !12
  %18 = getelementptr inbounds nuw %struct.pmix_shift_caddy_t, ptr %17, i32 0, i32 16
  %19 = load i64, ptr %18, align 8, !tbaa !109
  call void @PMIx_Info_free(ptr noundef %16, i64 noundef %19)
  %20 = load ptr, ptr %5, align 8, !tbaa !12
  %21 = getelementptr inbounds nuw %struct.pmix_shift_caddy_t, ptr %20, i32 0, i32 15
  store ptr null, ptr %21, align 8, !tbaa !110
  br label %22

22:                                               ; preds = %13
  br label %23

23:                                               ; preds = %22
  br label %24

24:                                               ; preds = %23, %2
  %25 = load ptr, ptr %5, align 8, !tbaa !12
  %26 = getelementptr inbounds nuw %struct.pmix_shift_caddy_t, ptr %25, i32 0, i32 13
  %27 = load ptr, ptr %26, align 8, !tbaa !108
  %28 = icmp ne ptr null, %27
  br i1 %28, label %29, label %41

29:                                               ; preds = %24
  br label %30

30:                                               ; preds = %29
  %31 = load ptr, ptr %5, align 8, !tbaa !12
  %32 = getelementptr inbounds nuw %struct.pmix_shift_caddy_t, ptr %31, i32 0, i32 13
  %33 = load ptr, ptr %32, align 8, !tbaa !108
  %34 = load ptr, ptr %5, align 8, !tbaa !12
  %35 = getelementptr inbounds nuw %struct.pmix_shift_caddy_t, ptr %34, i32 0, i32 14
  %36 = load i64, ptr %35, align 8, !tbaa !95
  call void @PMIx_Info_free(ptr noundef %33, i64 noundef %36)
  %37 = load ptr, ptr %5, align 8, !tbaa !12
  %38 = getelementptr inbounds nuw %struct.pmix_shift_caddy_t, ptr %37, i32 0, i32 13
  store ptr null, ptr %38, align 8, !tbaa !108
  br label %39

39:                                               ; preds = %30
  br label %40

40:                                               ; preds = %39
  br label %41

41:                                               ; preds = %40, %24
  br label %42

42:                                               ; preds = %41
  call void @llvm.lifetime.start.p0(i64 8, ptr %6) #13
  %43 = load ptr, ptr %5, align 8, !tbaa !12
  store ptr %43, ptr %6, align 8, !tbaa !60
  %44 = load ptr, ptr %6, align 8, !tbaa !60
  %45 = call i32 @pmix_obj_update(ptr noundef %44, i32 noundef -1)
  %46 = icmp eq i32 0, %45
  br i1 %46, label %47, label %61

47:                                               ; preds = %42
  %48 = load ptr, ptr %6, align 8, !tbaa !60
  call void @pmix_obj_run_destructors(ptr noundef %48)
  %49 = load ptr, ptr %6, align 8, !tbaa !60
  %50 = getelementptr inbounds nuw %struct.pmix_object_t, ptr %49, i32 0, i32 3
  %51 = getelementptr inbounds nuw %struct.pmix_tma, ptr %50, i32 0, i32 5
  %52 = load ptr, ptr %51, align 8, !tbaa !69
  %53 = icmp ne ptr null, %52
  br i1 %53, label %54, label %58

54:                                               ; preds = %47
  %55 = load ptr, ptr %6, align 8, !tbaa !60
  %56 = getelementptr inbounds nuw %struct.pmix_object_t, ptr %55, i32 0, i32 3
  %57 = load ptr, ptr %5, align 8, !tbaa !12
  call void @pmix_tma_free(ptr noundef %56, ptr noundef %57)
  br label %60

58:                                               ; preds = %47
  %59 = load ptr, ptr %5, align 8, !tbaa !12
  call void @free(ptr noundef %59) #13
  br label %60

60:                                               ; preds = %58, %54
  store ptr null, ptr %5, align 8, !tbaa !12
  br label %61

61:                                               ; preds = %60, %42
  call void @llvm.lifetime.end.p0(i64 8, ptr %6) #13
  br label %62

62:                                               ; preds = %61
  br label %63

63:                                               ; preds = %62
  call void @llvm.lifetime.end.p0(i64 8, ptr %5) #13
  ret void
}