; Function Attrs: nounwind uwtable
define internal void @show_help_cbfunc(i32 %0, ptr noundef %1) #0 {
  %3 = getelementptr inbounds nuw i8, ptr %1, i64 576
  %4 = load ptr, ptr %3, align 8, !tbaa !95
  %.not = icmp eq ptr %4, null
  br i1 %.not, label %8, label %5

5:                                                ; preds = %2
  %6 = getelementptr inbounds nuw i8, ptr %1, i64 584
  %7 = load i64, ptr %6, align 8, !tbaa !94
  tail call void @PMIx_Info_free(ptr noundef nonnull %4, i64 noundef %7) #18
  store ptr null, ptr %3, align 8, !tbaa !95
  br label %8

8:                                                ; preds = %5, %2
  %9 = getelementptr inbounds nuw i8, ptr %1, i64 560
  %10 = load ptr, ptr %9, align 8, !tbaa !93
  %.not17 = icmp eq ptr %10, null
  br i1 %.not17, label %14, label %11

11:                                               ; preds = %8
  %12 = getelementptr inbounds nuw i8, ptr %1, i64 568
  %13 = load i64, ptr %12, align 8, !tbaa !80
  tail call void @PMIx_Info_free(ptr noundef nonnull %10, i64 noundef %13) #18
  store ptr null, ptr %9, align 8, !tbaa !93
  br label %14

14:                                               ; preds = %8, %11
  %15 = tail call i32 @pthread_mutex_lock(ptr noundef nonnull %1) #18
  %16 = icmp eq i32 %15, 35
  br i1 %16, label %17, label %pmix_obj_update.exit

17:                                               ; preds = %14
  %18 = tail call ptr @__errno_location() #20
  store i32 35, ptr %18, align 4, !tbaa !24
  tail call void @perror(ptr noundef nonnull @.str.10) #21
  tail call void @abort() #22
  unreachable

pmix_obj_update.exit:                             ; preds = %14
  %19 = getelementptr inbounds nuw i8, ptr %1, i64 48
  %20 = load i32, ptr %19, align 8, !tbaa !27
  %21 = add nsw i32 %20, -1
  store i32 %21, ptr %19, align 8, !tbaa !27
  %22 = tail call i32 @pthread_mutex_unlock(ptr noundef nonnull %1) #18
  %23 = icmp eq i32 %21, 0
  br i1 %23, label %24, label %38

24:                                               ; preds = %pmix_obj_update.exit
  %25 = getelementptr inbounds nuw i8, ptr %1, i64 40
  %26 = load ptr, ptr %25, align 8, !tbaa !26
  %27 = getelementptr inbounds nuw i8, ptr %26, i64 48
  %28 = load ptr, ptr %27, align 8, !tbaa !65
  %29 = load ptr, ptr %28, align 8, !tbaa !29
  %.not6.i = icmp eq ptr %29, null
  br i1 %.not6.i, label %pmix_obj_run_destructors.exit, label %.lr.ph.i

.lr.ph.i:                                         ; preds = %24, %.lr.ph.i
  %30 = phi ptr [ %32, %.lr.ph.i ], [ %29, %24 ]
  %.07.i = phi ptr [ %31, %.lr.ph.i ], [ %28, %24 ]
  tail call void %30(ptr noundef nonnull %1) #18
  %31 = getelementptr inbounds nuw i8, ptr %.07.i, i64 8
  %32 = load ptr, ptr %31, align 8, !tbaa !29
  %.not.i = icmp eq ptr %32, null
  br i1 %.not.i, label %pmix_obj_run_destructors.exit, label %.lr.ph.i, !llvm.loop !66

pmix_obj_run_destructors.exit:                    ; preds = %.lr.ph.i, %24
  %33 = getelementptr inbounds nuw i8, ptr %1, i64 96
  %34 = load ptr, ptr %33, align 8, !tbaa !67
  %.not18 = icmp eq ptr %34, null
  br i1 %.not18, label %37, label %35

35:                                               ; preds = %pmix_obj_run_destructors.exit
  %36 = getelementptr inbounds nuw i8, ptr %1, i64 56
  tail call void %34(ptr noundef nonnull %36, ptr noundef nonnull %1) #18
  br label %38

37:                                               ; preds = %pmix_obj_run_destructors.exit
  tail call void @free(ptr noundef nonnull %1) #18
  br label %38

38:                                               ; preds = %35, %37, %pmix_obj_update.exit
  ret void
}